; Function Attrs: nounwind uwtable
define ptr @l_Lean_Meta_Canonicalizer_canon_unsafe__1(i64 noundef %0, ptr noundef readonly captures(none) %1) local_unnamed_addr #2 {
lean_dec.exit:
  %2 = getelementptr inbounds nuw i8, ptr %1, i64 16
  %3 = load ptr, ptr %2, align 8, !tbaa !4
  %4 = getelementptr inbounds nuw i8, ptr %3, i64 16
  %5 = load ptr, ptr %4, align 8, !tbaa !4
  %6 = getelementptr i8, ptr %5, i64 8
  %.val = load i64, ptr %6, align 8, !tbaa !12
  %7 = and i64 %.val, 9223372036854775807
  %8 = lshr i64 %0, 32
  %9 = xor i64 %8, %0
  %10 = lshr i64 %9, 16
  %11 = xor i64 %10, %9
  %12 = add nsw i64 %7, -1
  %13 = and i64 %12, %11
  %14 = getelementptr inbounds nuw i8, ptr %5, i64 24
  %15 = getelementptr inbounds nuw [0 x ptr], ptr %14, i64 0, i64 %13
  %16 = load ptr, ptr %15, align 8, !tbaa !4
  %17 = ptrtoint ptr %16 to i64
  %18 = and i64 %17, 1
  %.not.i23 = icmp eq i64 %18, 0
  br i1 %.not.i23, label %19, label %lean_array_uget.exit

19:                                               ; preds = %lean_dec.exit
  %.val.i.i = load i32, ptr %16, align 4, !tbaa !8
  %20 = icmp sgt i32 %.val.i.i, 0
  br i1 %20, label %21, label %23, !prof !11

21:                                               ; preds = %19
  %22 = add nuw i32 %.val.i.i, 1
  store i32 %22, ptr %16, align 4, !tbaa !8
  br label %lean_array_uget.exit

23:                                               ; preds = %19
  %.not.i.i = icmp eq i32 %.val.i.i, 0
  br i1 %.not.i.i, label %lean_array_uget.exit, label %24

24:                                               ; preds = %23
  tail call void @lean_inc_ref_cold(ptr noundef nonnull %16) #6
  br label %lean_array_uget.exit

lean_array_uget.exit:                             ; preds = %lean_dec.exit, %21, %23, %24
  %25 = tail call ptr @l_Std_DHashMap_Internal_AssocList_get_x3f___at_Lean_Meta_Canonicalizer_canon_unsafe__1___spec__1(i64 noundef %0, ptr noundef %16)
  ret ptr %25
}